target datalayout = "e-m:e-p270:32:32-p271:32:32-p272:64:64-i64:64-i128:128-f80:128-n8:16:32:64-S128"
target triple = "x86_64-unknown-linux-gnu"

%"struct.msdfgen::Vector2" = type { double, double }
%"class.msdfgen::EdgeSegment.base" = type <{ ptr, i32 }>
%"class.msdfgen::CubicSegment" = type { %"class.msdfgen::EdgeSegment.base", [4 x %"struct.msdfgen::Vector2"] }

; Function Attrs: mustprogress uwtable
define linkonce_odr dso_local { double, double } @_ZN7msdfgenplENS_7Vector2ES0_(double %a.coerce0, double %a.coerce1, double %b.coerce0, double %b.coerce1) #0 comdat {
entry:
  %retval = alloca %"struct.msdfgen::Vector2", align 8
  %a = alloca %"struct.msdfgen::Vector2", align 8
  %b = alloca %"struct.msdfgen::Vector2", align 8
  %0 = getelementptr inbounds { double, double }, ptr %a, i32 0, i32 0
  store double %a.coerce0, ptr %0, align 8
  %1 = getelementptr inbounds { double, double }, ptr %a, i32 0, i32 1
  store double %a.coerce1, ptr %1, align 8
  %2 = getelementptr inbounds { double, double }, ptr %b, i32 0, i32 0
  store double %b.coerce0, ptr %2, align 8
  %3 = getelementptr inbounds { double, double }, ptr %b, i32 0, i32 1
  store double %b.coerce1, ptr %3, align 8
  %x = getelementptr inbounds %"struct.msdfgen::Vector2", ptr %a, i32 0, i32 0
  %4 = load double, ptr %x, align 8
  %x1 = getelementptr inbounds %"struct.msdfgen::Vector2", ptr %b, i32 0, i32 0
  %5 = load double, ptr %x1, align 8
  %add = fadd double %4, %5
  %y = getelementptr inbounds %"struct.msdfgen::Vector2", ptr %a, i32 0, i32 1
  %6 = load double, ptr %y, align 8
  %y2 = getelementptr inbounds %"struct.msdfgen::Vector2", ptr %b, i32 0, i32 1
  %7 = load double, ptr %y2, align 8
  %add3 = fadd double %6, %7
  call void @_ZN7msdfgen7Vector2C2Edd(ptr noundef nonnull align 8 dereferenceable(16) %retval, double noundef %add, double noundef %add3)
  %8 = load { double, double }, ptr %retval, align 8
  ret { double, double } %8
}

; Function Attrs: mustprogress uwtable
define linkonce_odr dso_local { double, double } @_ZN7msdfgenmlEdNS_7Vector2E(double noundef %a, double %b.coerce0, double %b.coerce1) #0 comdat {
entry:
  %retval = alloca %"struct.msdfgen::Vector2", align 8
  %b = alloca %"struct.msdfgen::Vector2", align 8
  %a.addr = alloca double, align 8
  %0 = getelementptr inbounds { double, double }, ptr %b, i32 0, i32 0
  store double %b.coerce0, ptr %0, align 8
  %1 = getelementptr inbounds { double, double }, ptr %b, i32 0, i32 1
  store double %b.coerce1, ptr %1, align 8
  store double %a, ptr %a.addr, align 8
  %2 = load double, ptr %a.addr, align 8
  %x = getelementptr inbounds %"struct.msdfgen::Vector2", ptr %b, i32 0, i32 0
  %3 = load double, ptr %x, align 8
  %mul = fmul double %2, %3
  %4 = load double, ptr %a.addr, align 8
  %y = getelementptr inbounds %"struct.msdfgen::Vector2", ptr %b, i32 0, i32 1
  %5 = load double, ptr %y, align 8
  %mul1 = fmul double %4, %5
  call void @_ZN7msdfgen7Vector2C2Edd(ptr noundef nonnull align 8 dereferenceable(16) %retval, double noundef %mul, double noundef %mul1)
  %6 = load { double, double }, ptr %retval, align 8
  ret { double, double } %6
}

; Function Attrs: mustprogress nounwind uwtable
define linkonce_odr dso_local void @_ZN7msdfgen7Vector2C2Edd(ptr noundef nonnull align 8 dereferenceable(16) %this, double noundef %x, double noundef %y) unnamed_addr #4 comdat align 2 {
entry:
  %this.addr = alloca ptr, align 8
  %x.addr = alloca double, align 8
  %y.addr = alloca double, align 8
  store ptr %this, ptr %this.addr, align 8
  store double %x, ptr %x.addr, align 8
  store double %y, ptr %y.addr, align 8
  %this1 = load ptr, ptr %this.addr, align 8
  %x2 = getelementptr inbounds %"struct.msdfgen::Vector2", ptr %this1, i32 0, i32 0
  %0 = load double, ptr %x.addr, align 8
  store double %0, ptr %x2, align 8
  %y3 = getelementptr inbounds %"struct.msdfgen::Vector2", ptr %this1, i32 0, i32 1
  %1 = load double, ptr %y.addr, align 8
  store double %1, ptr %y3, align 8
  ret void
}

; Function Attrs: mustprogress uwtable
define linkonce_odr dso_local { double, double } @_ZN7msdfgen3mixINS_7Vector2EdEET_S2_S2_T0_(double %a.coerce0, double %a.coerce1, double %b.coerce0, double %b.coerce1, double noundef %weight) #0 comdat {
entry:
  %retval = alloca %"struct.msdfgen::Vector2", align 8
  %a = alloca %"struct.msdfgen::Vector2", align 8
  %b = alloca %"struct.msdfgen::Vector2", align 8
  %weight.addr = alloca double, align 8
  %agg.tmp = alloca %"struct.msdfgen::Vector2", align 8
  %agg.tmp1 = alloca %"struct.msdfgen::Vector2", align 8
  %agg.tmp2 = alloca %"struct.msdfgen::Vector2", align 8
  %agg.tmp3 = alloca %"struct.msdfgen::Vector2", align 8
  %0 = getelementptr inbounds { double, double }, ptr %a, i32 0, i32 0
  store double %a.coerce0, ptr %0, align 8
  %1 = getelementptr inbounds { double, double }, ptr %a, i32 0, i32 1
  store double %a.coerce1, ptr %1, align 8
  %2 = getelementptr inbounds { double, double }, ptr %b, i32 0, i32 0
  store double %b.coerce0, ptr %2, align 8
  %3 = getelementptr inbounds { double, double }, ptr %b, i32 0, i32 1
  store double %b.coerce1, ptr %3, align 8
  store double %weight, ptr %weight.addr, align 8
  %4 = load double, ptr %weight.addr, align 8
  %sub = fsub double 1.000000e+00, %4
  call void @llvm.memcpy.p0.p0.i64(ptr align 8 %agg.tmp1, ptr align 8 %a, i64 16, i1 false)
  %5 = getelementptr inbounds { double, double }, ptr %agg.tmp1, i32 0, i32 0
  %6 = load double, ptr %5, align 8
  %7 = getelementptr inbounds { double, double }, ptr %agg.tmp1, i32 0, i32 1
  %8 = load double, ptr %7, align 8
  %call = call { double, double } @_ZN7msdfgenmlEdNS_7Vector2E(double noundef %sub, double %6, double %8)
  %9 = getelementptr inbounds { double, double }, ptr %agg.tmp, i32 0, i32 0
  %10 = extractvalue { double, double } %call, 0
  store double %10, ptr %9, align 8
  %11 = getelementptr inbounds { double, double }, ptr %agg.tmp, i32 0, i32 1
  %12 = extractvalue { double, double } %call, 1
  store double %12, ptr %11, align 8
  %13 = load double, ptr %weight.addr, align 8
  call void @llvm.memcpy.p0.p0.i64(ptr align 8 %agg.tmp3, ptr align 8 %b, i64 16, i1 false)
  %14 = getelementptr inbounds { double, double }, ptr %agg.tmp3, i32 0, i32 0
  %15 = load double, ptr %14, align 8
  %16 = getelementptr inbounds { double, double }, ptr %agg.tmp3, i32 0, i32 1
  %17 = load double, ptr %16, align 8
  %call4 = call { double, double } @_ZN7msdfgenmlEdNS_7Vector2E(double noundef %13, double %15, double %17)
  %18 = getelementptr inbounds { double, double }, ptr %agg.tmp2, i32 0, i32 0
  %19 = extractvalue { double, double } %call4, 0
  store double %19, ptr %18, align 8
  %20 = getelementptr inbounds { double, double }, ptr %agg.tmp2, i32 0, i32 1
  %21 = extractvalue { double, double } %call4, 1
  store double %21, ptr %20, align 8
  %22 = getelementptr inbounds { double, double }, ptr %agg.tmp, i32 0, i32 0
  %23 = load double, ptr %22, align 8
  %24 = getelementptr inbounds { double, double }, ptr %agg.tmp, i32 0, i32 1
  %25 = load double, ptr %24, align 8
  %26 = getelementptr inbounds { double, double }, ptr %agg.tmp2, i32 0, i32 0
  %27 = load double, ptr %26, align 8
  %28 = getelementptr inbounds { double, double }, ptr %agg.tmp2, i32 0, i32 1
  %29 = load double, ptr %28, align 8
  %call5 = call { double, double } @_ZN7msdfgenplENS_7Vector2ES0_(double %23, double %25, double %27, double %29)
  %30 = getelementptr inbounds { double, double }, ptr %retval, i32 0, i32 0
  %31 = extractvalue { double, double } %call5, 0
  store double %31, ptr %30, align 8
  %32 = getelementptr inbounds { double, double }, ptr %retval, i32 0, i32 1
  %33 = extractvalue { double, double } %call5, 1
  store double %33, ptr %32, align 8
  %34 = load { double, double }, ptr %retval, align 8
  ret { double, double } %34
}

; Function Attrs: mustprogress uwtable
define linkonce_odr dso_local { double, double } @_ZN7msdfgenmiENS_7Vector2ES0_(double %a.coerce0, double %a.coerce1, double %b.coerce0, double %b.coerce1) #0 comdat {
entry:
  %retval = alloca %"struct.msdfgen::Vector2", align 8
  %a = alloca %"struct.msdfgen::Vector2", align 8
  %b = alloca %"struct.msdfgen::Vector2", align 8
  %0 = getelementptr inbounds { double, double }, ptr %a, i32 0, i32 0
  store double %a.coerce0, ptr %0, align 8
  %1 = getelementptr inbounds { double, double }, ptr %a, i32 0, i32 1
  store double %a.coerce1, ptr %1, align 8
  %2 = getelementptr inbounds { double, double }, ptr %b, i32 0, i32 0
  store double %b.coerce0, ptr %2, align 8
  %3 = getelementptr inbounds { double, double }, ptr %b, i32 0, i32 1
  store double %b.coerce1, ptr %3, align 8
  %x = getelementptr inbounds %"struct.msdfgen::Vector2", ptr %a, i32 0, i32 0
  %4 = load double, ptr %x, align 8
  %x1 = getelementptr inbounds %"struct.msdfgen::Vector2", ptr %b, i32 0, i32 0
  %5 = load double, ptr %x1, align 8
  %sub = fsub double %4, %5
  %y = getelementptr inbounds %"struct.msdfgen::Vector2", ptr %a, i32 0, i32 1
  %6 = load double, ptr %y, align 8
  %y2 = getelementptr inbounds %"struct.msdfgen::Vector2", ptr %b, i32 0, i32 1
  %7 = load double, ptr %y2, align 8
  %sub3 = fsub double %6, %7
  call void @_ZN7msdfgen7Vector2C2Edd(ptr noundef nonnull align 8 dereferenceable(16) %retval, double noundef %sub, double noundef %sub3)
  %8 = load { double, double }, ptr %retval, align 8
  ret { double, double } %8
}

; Function Attrs: mustprogress uwtable
define dso_local { double, double } @_ZNK7msdfgen12CubicSegment15directionChangeEd(ptr noundef nonnull align 8 dereferenceable(80) %this, double noundef %param) unnamed_addr #0 align 2 {
entry:
  %retval = alloca %"struct.msdfgen::Vector2", align 8
  %this.addr = alloca ptr, align 8
  %param.addr = alloca double, align 8
  %agg.tmp = alloca %"struct.msdfgen::Vector2", align 8
  %agg.tmp2 = alloca %"struct.msdfgen::Vector2", align 8
  %agg.tmp3 = alloca %"struct.msdfgen::Vector2", align 8
  %agg.tmp4 = alloca %"struct.msdfgen::Vector2", align 8
  %agg.tmp7 = alloca %"struct.msdfgen::Vector2", align 8
  %agg.tmp8 = alloca %"struct.msdfgen::Vector2", align 8
  %agg.tmp11 = alloca %"struct.msdfgen::Vector2", align 8
  %agg.tmp16 = alloca %"struct.msdfgen::Vector2", align 8
  %agg.tmp17 = alloca %"struct.msdfgen::Vector2", align 8
  %agg.tmp18 = alloca %"struct.msdfgen::Vector2", align 8
  %agg.tmp21 = alloca %"struct.msdfgen::Vector2", align 8
  %agg.tmp25 = alloca %"struct.msdfgen::Vector2", align 8
  %agg.tmp26 = alloca %"struct.msdfgen::Vector2", align 8
  %agg.tmp29 = alloca %"struct.msdfgen::Vector2", align 8
  store ptr %this, ptr %this.addr, align 8
  store double %param, ptr %param.addr, align 8
  %this1 = load ptr, ptr %this.addr, align 8
  %p = getelementptr inbounds %"class.msdfgen::CubicSegment", ptr %this1, i32 0, i32 1
  %arrayidx = getelementptr inbounds [4 x %"struct.msdfgen::Vector2"], ptr %p, i64 0, i64 2
  call void @llvm.memcpy.p0.p0.i64(ptr align 8 %agg.tmp3, ptr align 8 %arrayidx, i64 16, i1 false)
  %p5 = getelementptr inbounds %"class.msdfgen::CubicSegment", ptr %this1, i32 0, i32 1
  %arrayidx6 = getelementptr inbounds [4 x %"struct.msdfgen::Vector2"], ptr %p5, i64 0, i64 1
  call void @llvm.memcpy.p0.p0.i64(ptr align 8 %agg.tmp4, ptr align 8 %arrayidx6, i64 16, i1 false)
  %0 = getelementptr inbounds { double, double }, ptr %agg.tmp3, i32 0, i32 0
  %1 = load double, ptr %0, align 8
  %2 = getelementptr inbounds { double, double }, ptr %agg.tmp3, i32 0, i32 1
  %3 = load double, ptr %2, align 8
  %4 = getelementptr inbounds { double, double }, ptr %agg.tmp4, i32 0, i32 0
  %5 = load double, ptr %4, align 8
  %6 = getelementptr inbounds { double, double }, ptr %agg.tmp4, i32 0, i32 1
  %7 = load double, ptr %6, align 8
  %call = call { double, double } @_ZN7msdfgenmiENS_7Vector2ES0_(double %1, double %3, double %5, double %7)
  %8 = getelementptr inbounds { double, double }, ptr %agg.tmp2, i32 0, i32 0
  %9 = extractvalue { double, double } %call, 0
  store double %9, ptr %8, align 8
  %10 = getelementptr inbounds { double, double }, ptr %agg.tmp2, i32 0, i32 1
  %11 = extractvalue { double, double } %call, 1
  store double %11, ptr %10, align 8
  %p9 = getelementptr inbounds %"class.msdfgen::CubicSegment", ptr %this1, i32 0, i32 1
  %arrayidx10 = getelementptr inbounds [4 x %"struct.msdfgen::Vector2"], ptr %p9, i64 0, i64 1
  call void @llvm.memcpy.p0.p0.i64(ptr align 8 %agg.tmp8, ptr align 8 %arrayidx10, i64 16, i1 false)
  %p12 = getelementptr inbounds %"class.msdfgen::CubicSegment", ptr %this1, i32 0, i32 1
  %arrayidx13 = getelementptr inbounds [4 x %"struct.msdfgen::Vector2"], ptr %p12, i64 0, i64 0
  call void @llvm.memcpy.p0.p0.i64(ptr align 8 %agg.tmp11, ptr align 8 %arrayidx13, i64 16, i1 false)
  %12 = getelementptr inbounds { double, double }, ptr %agg.tmp8, i32 0, i32 0
  %13 = load double, ptr %12, align 8
  %14 = getelementptr inbounds { double, double }, ptr %agg.tmp8, i32 0, i32 1
  %15 = load double, ptr %14, align 8
  %16 = getelementptr inbounds { double, double }, ptr %agg.tmp11, i32 0, i32 0
  %17 = load double, ptr %16, align 8
  %18 = getelementptr inbounds { double, double }, ptr %agg.tmp11, i32 0, i32 1
  %19 = load double, ptr %18, align 8
  %call14 = call { double, double } @_ZN7msdfgenmiENS_7Vector2ES0_(double %13, double %15, double %17, double %19)
  %20 = getelementptr inbounds { double, double }, ptr %agg.tmp7, i32 0, i32 0
  %21 = extractvalue { double, double } %call14, 0
  store double %21, ptr %20, align 8
  %22 = getelementptr inbounds { double, double }, ptr %agg.tmp7, i32 0, i32 1
  %23 = extractvalue { double, double } %call14, 1
  store double %23, ptr %22, align 8
  %24 = getelementptr inbounds { double, double }, ptr %agg.tmp2, i32 0, i32 0
  %25 = load double, ptr %24, align 8
  %26 = getelementptr inbounds { double, double }, ptr %agg.tmp2, i32 0, i32 1
  %27 = load double, ptr %26, align 8
  %28 = getelementptr inbounds { double, double }, ptr %agg.tmp7, i32 0, i32 0
  %29 = load double, ptr %28, align 8
  %30 = getelementptr inbounds { double, double }, ptr %agg.tmp7, i32 0, i32 1
  %31 = load double, ptr %30, align 8
  %call15 = call { double, double } @_ZN7msdfgenmiENS_7Vector2ES0_(double %25, double %27, double %29, double %31)
  %32 = getelementptr inbounds { double, double }, ptr %agg.tmp, i32 0, i32 0
  %33 = extractvalue { double, double } %call15, 0
  store double %33, ptr %32, align 8
  %34 = getelementptr inbounds { double, double }, ptr %agg.tmp, i32 0, i32 1
  %35 = extractvalue { double, double } %call15, 1
  store double %35, ptr %34, align 8
  %p19 = getelementptr inbounds %"class.msdfgen::CubicSegment", ptr %this1, i32 0, i32 1
  %arrayidx20 = getelementptr inbounds [4 x %"struct.msdfgen::Vector2"], ptr %p19, i64 0, i64 3
  call void @llvm.memcpy.p0.p0.i64(ptr align 8 %agg.tmp18, ptr align 8 %arrayidx20, i64 16, i1 false)
  %p22 = getelementptr inbounds %"class.msdfgen::CubicSegment", ptr %this1, i32 0, i32 1
  %arrayidx23 = getelementptr inbounds [4 x %"struct.msdfgen::Vector2"], ptr %p22, i64 0, i64 2
  call void @llvm.memcpy.p0.p0.i64(ptr align 8 %agg.tmp21, ptr align 8 %arrayidx23, i64 16, i1 false)
  %36 = getelementptr inbounds { double, double }, ptr %agg.tmp18, i32 0, i32 0
  %37 = load double, ptr %36, align 8
  %38 = getelementptr inbounds { double, double }, ptr %agg.tmp18, i32 0, i32 1
  %39 = load double, ptr %38, align 8
  %40 = getelementptr inbounds { double, double }, ptr %agg.tmp21, i32 0, i32 0
  %41 = load double, ptr %40, align 8
  %42 = getelementptr inbounds { double, double }, ptr %agg.tmp21, i32 0, i32 1
  %43 = load double, ptr %42, align 8
  %call24 = call { double, double } @_ZN7msdfgenmiENS_7Vector2ES0_(double %37, double %39, double %41, double %43)
  %44 = getelementptr inbounds { double, double }, ptr %agg.tmp17, i32 0, i32 0
  %45 = extractvalue { double, double } %call24, 0
  store double %45, ptr %44, align 8
  %46 = getelementptr inbounds { double, double }, ptr %agg.tmp17, i32 0, i32 1
  %47 = extractvalue { double, double } %call24, 1
  store double %47, ptr %46, align 8
  %p27 = getelementptr inbounds %"class.msdfgen::CubicSegment", ptr %this1, i32 0, i32 1
  %arrayidx28 = getelementptr inbounds [4 x %"struct.msdfgen::Vector2"], ptr %p27, i64 0, i64 2
  call void @llvm.memcpy.p0.p0.i64(ptr align 8 %agg.tmp26, ptr align 8 %arrayidx28, i64 16, i1 false)
  %p30 = getelementptr inbounds %"class.msdfgen::CubicSegment", ptr %this1, i32 0, i32 1
  %arrayidx31 = getelementptr inbounds [4 x %"struct.msdfgen::Vector2"], ptr %p30, i64 0, i64 1
  call void @llvm.memcpy.p0.p0.i64(ptr align 8 %agg.tmp29, ptr align 8 %arrayidx31, i64 16, i1 false)
  %48 = getelementptr inbounds { double, double }, ptr %agg.tmp26, i32 0, i32 0
  %49 = load double, ptr %48, align 8
  %50 = getelementptr inbounds { double, double }, ptr %agg.tmp26, i32 0, i32 1
  %51 = load double, ptr %50, align 8
  %52 = getelementptr inbounds { double, double }, ptr %agg.tmp29, i32 0, i32 0
  %53 = load double, ptr %52, align 8
  %54 = getelementptr inbounds { double, double }, ptr %agg.tmp29, i32 0, i32 1
  %55 = load double, ptr %54, align 8
  %call32 = call { double, double } @_ZN7msdfgenmiENS_7Vector2ES0_(double %49, double %51, double %53, double %55)
  %56 = getelementptr inbounds { double, double }, ptr %agg.tmp25, i32 0, i32 0
  %57 = extractvalue { double, double } %call32, 0
  store double %57, ptr %56, align 8
  %58 = getelementptr inbounds { double, double }, ptr %agg.tmp25, i32 0, i32 1
  %59 = extractvalue { double, double } %call32, 1
  store double %59, ptr %58, align 8
  %60 = getelementptr inbounds { double, double }, ptr %agg.tmp17, i32 0, i32 0
  %61 = load double, ptr %60, align 8
  %62 = getelementptr inbounds { double, double }, ptr %agg.tmp17, i32 0, i32 1
  %63 = load double, ptr %62, align 8
  %64 = getelementptr inbounds { double, double }, ptr %agg.tmp25, i32 0, i32 0
  %65 = load double, ptr %64, align 8
  %66 = getelementptr inbounds { double, double }, ptr %agg.tmp25, i32 0, i32 1
  %67 = load double, ptr %66, align 8
  %call33 = call { double, double } @_ZN7msdfgenmiENS_7Vector2ES0_(double %61, double %63, double %65, double %67)
  %68 = getelementptr inbounds { double, double }, ptr %agg.tmp16, i32 0, i32 0
  %69 = extractvalue { double, double } %call33, 0
  store double %69, ptr %68, align 8
  %70 = getelementptr inbounds { double, double }, ptr %agg.tmp16, i32 0, i32 1
  %71 = extractvalue { double, double } %call33, 1
  store double %71, ptr %70, align 8
  %72 = load double, ptr %param.addr, align 8
  %73 = getelementptr inbounds { double, double }, ptr %agg.tmp, i32 0, i32 0
  %74 = load double, ptr %73, align 8
  %75 = getelementptr inbounds { double, double }, ptr %agg.tmp, i32 0, i32 1
  %76 = load double, ptr %75, align 8
  %77 = getelementptr inbounds { double, double }, ptr %agg.tmp16, i32 0, i32 0
  %78 = load double, ptr %77, align 8
  %79 = getelementptr inbounds { double, double }, ptr %agg.tmp16, i32 0, i32 1
  %80 = load double, ptr %79, align 8
  %call34 = call { double, double } @_ZN7msdfgen3mixINS_7Vector2EdEET_S2_S2_T0_(double %74, double %76, double %78, double %80, double noundef %72)
  %81 = getelementptr inbounds { double, double }, ptr %retval, i32 0, i32 0
  %82 = extractvalue { double, double } %call34, 0
  store double %82, ptr %81, align 8
  %83 = getelementptr inbounds { double, double }, ptr %retval, i32 0, i32 1
  %84 = extractvalue { double, double } %call34, 1
  store double %84, ptr %83, align 8
  %85 = load { double, double }, ptr %retval, align 8
  ret { double, double } %85
}