; Function Attrs: mustprogress nofree norecurse nosync nounwind willreturn memory(argmem: read) uwtable
define dso_local { double, double } @_ZNK7msdfgen12CubicSegment15directionChangeEd(ptr nocapture noundef nonnull readonly align 8 dereferenceable(80) %this, double noundef %param) unnamed_addr #7 align 2 {
entry:
  %p = getelementptr inbounds i8, ptr %this, i64 16
  %arrayidx = getelementptr inbounds i8, ptr %this, i64 48
  %arrayidx6 = getelementptr inbounds i8, ptr %this, i64 32
  %arrayidx20 = getelementptr inbounds i8, ptr %this, i64 64
  %sub.i21 = fsub double 1.000000e+00, %param
  %0 = load <2 x double>, ptr %arrayidx, align 8
  %1 = load <2 x double>, ptr %arrayidx6, align 8
  %2 = fsub <2 x double> %0, %1
  %3 = load <2 x double>, ptr %p, align 8
  %4 = fsub <2 x double> %1, %3
  %5 = fsub <2 x double> %2, %4
  %6 = load <2 x double>, ptr %arrayidx20, align 8
  %7 = fsub <2 x double> %6, %0
  %8 = fsub <2 x double> %7, %2
  %9 = insertelement <2 x double> poison, double %sub.i21, i64 0
  %10 = shufflevector <2 x double> %9, <2 x double> poison, <2 x i32> zeroinitializer
  %11 = fmul <2 x double> %10, %5
  %12 = insertelement <2 x double> poison, double %param, i64 0
  %13 = shufflevector <2 x double> %12, <2 x double> poison, <2 x i32> zeroinitializer
  %14 = fmul <2 x double> %8, %13
  %15 = fadd <2 x double> %11, %14
  %16 = extractelement <2 x double> %15, i64 0
  %.fca.0.insert.i6.i = insertvalue { double, double } poison, double %16, 0
  %17 = extractelement <2 x double> %15, i64 1
  %.fca.1.insert.i7.i = insertvalue { double, double } %.fca.0.insert.i6.i, double %17, 1
  ret { double, double } %.fca.1.insert.i7.i
}